; Function Attrs: nounwind uwtable
define void @Bac_ManReadBacNtk(ptr noundef readonly captures(none) %0, ptr noundef captures(none) %1, ptr noundef captures(none) initializes((68, 72), (84, 88), (100, 104)) %2) local_unnamed_addr #5 {
  %4 = getelementptr inbounds nuw i8, ptr %2, i64 80
  %.val = load i32, ptr %4, align 8
  %5 = getelementptr i8, ptr %2, i64 88
  %.val.i = load ptr, ptr %5, align 8
  %6 = getelementptr i8, ptr %0, i64 8
  %.val7.i = load ptr, ptr %6, align 8
  %7 = load i32, ptr %1, align 4
  %8 = sext i32 %7 to i64
  %9 = getelementptr inbounds i8, ptr %.val7.i, i64 %8
  %10 = sext i32 %.val to i64
  tail call void @llvm.memcpy.p0.p0.i64(ptr align 1 %.val.i, ptr align 1 %9, i64 %10, i1 false)
  %11 = load i32, ptr %1, align 4
  %12 = add nsw i32 %11, %.val
  store i32 %12, ptr %1, align 4
  %13 = getelementptr i8, ptr %2, i64 84
  store i32 %.val, ptr %13, align 4
  %.val24 = load i32, ptr %4, align 8
  %14 = shl nsw i32 %.val24, 2
  %15 = getelementptr i8, ptr %2, i64 104
  %.val7.i28 = load ptr, ptr %15, align 8
  %.val.i29 = load ptr, ptr %6, align 8
  %16 = load i32, ptr %1, align 4
  %17 = sext i32 %16 to i64
  %18 = getelementptr inbounds i8, ptr %.val.i29, i64 %17
  %19 = sext i32 %14 to i64
  tail call void @llvm.memcpy.p0.p0.i64(ptr align 4 %.val7.i28, ptr align 1 %18, i64 %19, i1 false)
  %20 = load i32, ptr %1, align 4
  %21 = add nsw i32 %20, %14
  store i32 %21, ptr %1, align 4
  %22 = getelementptr inbounds nuw i8, ptr %2, i64 100
  store i32 %.val24, ptr %22, align 4
  %23 = getelementptr inbounds nuw i8, ptr %2, i64 64
  %.val25 = load i32, ptr %23, align 8
  %24 = sdiv i32 %.val25, 3
  %25 = mul nsw i32 %24, 12
  %26 = getelementptr i8, ptr %2, i64 72
  %.val7.i30 = load ptr, ptr %26, align 8
  %.val.i31 = load ptr, ptr %6, align 8
  %27 = load i32, ptr %1, align 4
  %28 = sext i32 %27 to i64
  %29 = getelementptr inbounds i8, ptr %.val.i31, i64 %28
  %30 = sext i32 %25 to i64
  tail call void @llvm.memcpy.p0.p0.i64(ptr align 4 %.val7.i30, ptr align 1 %29, i64 %30, i1 false)
  %31 = load i32, ptr %1, align 4
  %32 = add nsw i32 %31, %25
  store i32 %32, ptr %1, align 4
  %33 = mul nsw i32 %24, 3
  %34 = getelementptr inbounds nuw i8, ptr %2, i64 68
  store i32 %33, ptr %34, align 4
  %.val2639 = load i32, ptr %13, align 4
  %35 = icmp sgt i32 %.val2639, 0
  br i1 %35, label %.lr.ph, label %.critedge

.lr.ph:                                           ; preds = %3
  %36 = getelementptr inbounds nuw i8, ptr %2, i64 32
  %37 = getelementptr inbounds nuw i8, ptr %2, i64 36
  %.phi.trans.insert.i = getelementptr inbounds nuw i8, ptr %2, i64 40
  %38 = getelementptr inbounds nuw i8, ptr %2, i64 48
  %39 = getelementptr inbounds nuw i8, ptr %2, i64 52
  %.phi.trans.insert.i33 = getelementptr inbounds nuw i8, ptr %2, i64 56
  br label %40

40:                                               ; preds = %.lr.ph, %101
  %indvars.iv = phi i64 [ 0, %.lr.ph ], [ %indvars.iv.next, %101 ]
  %.val27 = load ptr, ptr %5, align 8
  %41 = getelementptr inbounds nuw i8, ptr %.val27, i64 %indvars.iv
  %42 = load i8, ptr %41, align 1
  %43 = lshr i8 %42, 1
  switch i8 %43, label %101 [
    i8 2, label %71
    i8 1, label %44
  ]

44:                                               ; preds = %40
  %45 = load i32, ptr %37, align 4
  %46 = load i32, ptr %36, align 8
  %47 = icmp eq i32 %45, %46
  br i1 %47, label %48, label %.Vec_IntGrow.exit10_crit_edge.i

.Vec_IntGrow.exit10_crit_edge.i:                  ; preds = %44
  %.pre.i = load ptr, ptr %.phi.trans.insert.i, align 8
  br label %Vec_IntPush.exit

48:                                               ; preds = %44
  %49 = icmp slt i32 %45, 16
  br i1 %49, label %50, label %57

50:                                               ; preds = %48
  %51 = load ptr, ptr %.phi.trans.insert.i, align 8
  %.not9.i.i = icmp eq ptr %51, null
  br i1 %.not9.i.i, label %54, label %52

52:                                               ; preds = %50
  %53 = tail call dereferenceable_or_null(64) ptr @realloc(ptr noundef nonnull %51, i64 noundef 64) #18
  br label %Vec_IntGrow.exit.i

54:                                               ; preds = %50
  %55 = tail call noalias dereferenceable_or_null(64) ptr @malloc(i64 noundef 64) #19
  br label %Vec_IntGrow.exit.i

Vec_IntGrow.exit.i:                               ; preds = %54, %52
  %56 = phi ptr [ %53, %52 ], [ %55, %54 ]
  store ptr %56, ptr %.phi.trans.insert.i, align 8
  store i32 16, ptr %36, align 8
  br label %Vec_IntPush.exit

57:                                               ; preds = %48
  %58 = shl nuw nsw i32 %45, 1
  %59 = load ptr, ptr %.phi.trans.insert.i, align 8
  %.not9.i9.i = icmp eq ptr %59, null
  %60 = zext nneg i32 %58 to i64
  %61 = shl nuw nsw i64 %60, 2
  br i1 %.not9.i9.i, label %64, label %62

62:                                               ; preds = %57
  %63 = tail call ptr @realloc(ptr noundef nonnull %59, i64 noundef %61) #18
  br label %66

64:                                               ; preds = %57
  %65 = tail call noalias ptr @malloc(i64 noundef %61) #19
  br label %66

66:                                               ; preds = %64, %62
  %67 = phi ptr [ %63, %62 ], [ %65, %64 ]
  store ptr %67, ptr %.phi.trans.insert.i, align 8
  store i32 %58, ptr %36, align 8
  br label %Vec_IntPush.exit

Vec_IntPush.exit:                                 ; preds = %.Vec_IntGrow.exit10_crit_edge.i, %Vec_IntGrow.exit.i, %66
  %68 = phi ptr [ %.pre.i, %.Vec_IntGrow.exit10_crit_edge.i ], [ %67, %66 ], [ %56, %Vec_IntGrow.exit.i ]
  %69 = load i32, ptr %37, align 4
  %70 = add nsw i32 %69, 1
  store i32 %70, ptr %37, align 4
  br label %.sink.split

71:                                               ; preds = %40
  %72 = load i32, ptr %39, align 4
  %73 = load i32, ptr %38, align 8
  %74 = icmp eq i32 %72, %73
  br i1 %74, label %75, label %.Vec_IntGrow.exit10_crit_edge.i32

.Vec_IntGrow.exit10_crit_edge.i32:                ; preds = %71
  %.pre.i34 = load ptr, ptr %.phi.trans.insert.i33, align 8
  br label %Vec_IntPush.exit38

75:                                               ; preds = %71
  %76 = icmp slt i32 %72, 16
  br i1 %76, label %77, label %84

77:                                               ; preds = %75
  %78 = load ptr, ptr %.phi.trans.insert.i33, align 8
  %.not9.i.i36 = icmp eq ptr %78, null
  br i1 %.not9.i.i36, label %81, label %79

79:                                               ; preds = %77
  %80 = tail call dereferenceable_or_null(64) ptr @realloc(ptr noundef nonnull %78, i64 noundef 64) #18
  br label %Vec_IntGrow.exit.i37

81:                                               ; preds = %77
  %82 = tail call noalias dereferenceable_or_null(64) ptr @malloc(i64 noundef 64) #19
  br label %Vec_IntGrow.exit.i37

Vec_IntGrow.exit.i37:                             ; preds = %81, %79
  %83 = phi ptr [ %80, %79 ], [ %82, %81 ]
  store ptr %83, ptr %.phi.trans.insert.i33, align 8
  store i32 16, ptr %38, align 8
  br label %Vec_IntPush.exit38

84:                                               ; preds = %75
  %85 = shl nuw nsw i32 %72, 1
  %86 = load ptr, ptr %.phi.trans.insert.i33, align 8
  %.not9.i9.i35 = icmp eq ptr %86, null
  %87 = zext nneg i32 %85 to i64
  %88 = shl nuw nsw i64 %87, 2
  br i1 %.not9.i9.i35, label %91, label %89

89:                                               ; preds = %84
  %90 = tail call ptr @realloc(ptr noundef nonnull %86, i64 noundef %88) #18
  br label %93

91:                                               ; preds = %84
  %92 = tail call noalias ptr @malloc(i64 noundef %88) #19
  br label %93

93:                                               ; preds = %91, %89
  %94 = phi ptr [ %90, %89 ], [ %92, %91 ]
  store ptr %94, ptr %.phi.trans.insert.i33, align 8
  store i32 %85, ptr %38, align 8
  br label %Vec_IntPush.exit38

Vec_IntPush.exit38:                               ; preds = %.Vec_IntGrow.exit10_crit_edge.i32, %Vec_IntGrow.exit.i37, %93
  %95 = phi ptr [ %.pre.i34, %.Vec_IntGrow.exit10_crit_edge.i32 ], [ %94, %93 ], [ %83, %Vec_IntGrow.exit.i37 ]
  %96 = load i32, ptr %39, align 4
  %97 = add nsw i32 %96, 1
  store i32 %97, ptr %39, align 4
  br label %.sink.split

.sink.split:                                      ; preds = %Vec_IntPush.exit38, %Vec_IntPush.exit
  %.sink44 = phi i32 [ %69, %Vec_IntPush.exit ], [ %96, %Vec_IntPush.exit38 ]
  %.sink = phi ptr [ %68, %Vec_IntPush.exit ], [ %95, %Vec_IntPush.exit38 ]
  %98 = sext i32 %.sink44 to i64
  %99 = getelementptr inbounds i32, ptr %.sink, i64 %98
  %100 = trunc nuw nsw i64 %indvars.iv to i32
  store i32 %100, ptr %99, align 4
  br label %101

101:                                              ; preds = %.sink.split, %40
  %indvars.iv.next = add nuw nsw i64 %indvars.iv, 1
  %.val26 = load i32, ptr %13, align 4
  %102 = sext i32 %.val26 to i64
  %103 = icmp slt i64 %indvars.iv.next, %102
  br i1 %103, label %40, label %.critedge, !llvm.loop !10

.critedge:                                        ; preds = %101, %3
  ret void
}